target datalayout = "e-m:e-p270:32:32-p271:32:32-p272:64:64-i64:64-i128:128-f80:128-n8:16:32:64-S128"
target triple = "x86_64-pc-linux-gnu"

%struct.KDF_SCRYPT = type { ptr, ptr, ptr, i64, ptr, i64, i64, i64, i64, i64, ptr }

@.str = private unnamed_addr constant [51 x i8] c"../openssl/providers/implementations/kdfs/scrypt.c\00", align 1

; Function Attrs: nounwind uwtable
define internal void @kdf_scrypt_reset(ptr noundef %0) #0 {
  %2 = alloca ptr, align 8
  %3 = alloca ptr, align 8
  store ptr %0, ptr %2, align 8, !tbaa !3
  call void @llvm.lifetime.start.p0(i64 8, ptr %3) #5
  %4 = load ptr, ptr %2, align 8, !tbaa !3
  store ptr %4, ptr %3, align 8, !tbaa !3
  %5 = load ptr, ptr %3, align 8, !tbaa !3
  %6 = getelementptr inbounds nuw %struct.KDF_SCRYPT, ptr %5, i32 0, i32 4
  %7 = load ptr, ptr %6, align 8, !tbaa !15
  call void @CRYPTO_free(ptr noundef %7, ptr noundef @.str, i32 noundef 94)
  %8 = load ptr, ptr %3, align 8, !tbaa !3
  %9 = getelementptr inbounds nuw %struct.KDF_SCRYPT, ptr %8, i32 0, i32 4
  store ptr null, ptr %9, align 8, !tbaa !15
  %10 = load ptr, ptr %3, align 8, !tbaa !3
  %11 = getelementptr inbounds nuw %struct.KDF_SCRYPT, ptr %10, i32 0, i32 2
  %12 = load ptr, ptr %11, align 8, !tbaa !17
  %13 = load ptr, ptr %3, align 8, !tbaa !3
  %14 = getelementptr inbounds nuw %struct.KDF_SCRYPT, ptr %13, i32 0, i32 3
  %15 = load i64, ptr %14, align 8, !tbaa !18
  call void @CRYPTO_clear_free(ptr noundef %12, i64 noundef %15, ptr noundef @.str, i32 noundef 96)
  %16 = load ptr, ptr %3, align 8, !tbaa !3
  %17 = getelementptr inbounds nuw %struct.KDF_SCRYPT, ptr %16, i32 0, i32 2
  store ptr null, ptr %17, align 8, !tbaa !17
  %18 = load ptr, ptr %3, align 8, !tbaa !3
  call void @kdf_scrypt_init(ptr noundef %18)
  call void @llvm.lifetime.end.p0(i64 8, ptr %3) #5
  ret void
}

; Function Attrs: nounwind uwtable
define internal void @kdf_scrypt_init(ptr noundef %0) #0 {
  %2 = alloca ptr, align 8
  store ptr %0, ptr %2, align 8, !tbaa !3
  %3 = load ptr, ptr %2, align 8, !tbaa !3
  %4 = getelementptr inbounds nuw %struct.KDF_SCRYPT, ptr %3, i32 0, i32 6
  store i64 1048576, ptr %4, align 8, !tbaa !19
  %5 = load ptr, ptr %2, align 8, !tbaa !3
  %6 = getelementptr inbounds nuw %struct.KDF_SCRYPT, ptr %5, i32 0, i32 7
  store i64 8, ptr %6, align 8, !tbaa !20
  %7 = load ptr, ptr %2, align 8, !tbaa !3
  %8 = getelementptr inbounds nuw %struct.KDF_SCRYPT, ptr %7, i32 0, i32 8
  store i64 1, ptr %8, align 8, !tbaa !21
  %9 = load ptr, ptr %2, align 8, !tbaa !3
  %10 = getelementptr inbounds nuw %struct.KDF_SCRYPT, ptr %9, i32 0, i32 9
  store i64 1074790400, ptr %10, align 8, !tbaa !22
  ret void
}

; Function Attrs: nounwind uwtable
define internal void @kdf_scrypt_free(ptr noundef %0) #0 {
  %2 = alloca ptr, align 8
  %3 = alloca ptr, align 8
  store ptr %0, ptr %2, align 8, !tbaa !3
  call void @llvm.lifetime.start.p0(i64 8, ptr %3) #5
  %4 = load ptr, ptr %2, align 8, !tbaa !3
  store ptr %4, ptr %3, align 8, !tbaa !3
  %5 = load ptr, ptr %3, align 8, !tbaa !3
  %6 = icmp ne ptr %5, null
  br i1 %6, label %7, label %16

7:                                                ; preds = %1
  %8 = load ptr, ptr %3, align 8, !tbaa !3
  %9 = getelementptr inbounds nuw %struct.KDF_SCRYPT, ptr %8, i32 0, i32 1
  %10 = load ptr, ptr %9, align 8, !tbaa !14
  call void @CRYPTO_free(ptr noundef %10, ptr noundef @.str, i32 noundef 83)
  %11 = load ptr, ptr %3, align 8, !tbaa !3
  %12 = getelementptr inbounds nuw %struct.KDF_SCRYPT, ptr %11, i32 0, i32 10
  %13 = load ptr, ptr %12, align 8, !tbaa !13
  call void @EVP_MD_free(ptr noundef %13)
  %14 = load ptr, ptr %3, align 8, !tbaa !3
  call void @kdf_scrypt_reset(ptr noundef %14)
  %15 = load ptr, ptr %3, align 8, !tbaa !3
  call void @CRYPTO_free(ptr noundef %15, ptr noundef @.str, i32 noundef 86)
  br label %16

16:                                               ; preds = %7, %1
  call void @llvm.lifetime.end.p0(i64 8, ptr %3) #5
  ret void
}

; Function Attrs: nounwind uwtable
define internal ptr @kdf_scrypt_new_inner(ptr noundef %0) #0 {
  %2 = alloca ptr, align 8
  %3 = alloca ptr, align 8
  %4 = alloca ptr, align 8
  %5 = alloca i32, align 4
  store ptr %0, ptr %3, align 8, !tbaa !31
  call void @llvm.lifetime.start.p0(i64 8, ptr %4) #5
  %6 = call i32 @ossl_prov_is_running()
  %7 = icmp ne i32 %6, 0
  br i1 %7, label %9, label %8

8:                                                ; preds = %1
  store ptr null, ptr %2, align 8
  store i32 1, ptr %5, align 4
  br label %20

9:                                                ; preds = %1
  %10 = call noalias ptr @CRYPTO_zalloc(i64 noundef 88, ptr noundef @.str, i32 noundef 65)
  store ptr %10, ptr %4, align 8, !tbaa !3
  %11 = load ptr, ptr %4, align 8, !tbaa !3
  %12 = icmp eq ptr %11, null
  br i1 %12, label %13, label %14

13:                                               ; preds = %9
  store ptr null, ptr %2, align 8
  store i32 1, ptr %5, align 4
  br label %20

14:                                               ; preds = %9
  %15 = load ptr, ptr %3, align 8, !tbaa !31
  %16 = load ptr, ptr %4, align 8, !tbaa !3
  %17 = getelementptr inbounds nuw %struct.KDF_SCRYPT, ptr %16, i32 0, i32 0
  store ptr %15, ptr %17, align 8, !tbaa !7
  %18 = load ptr, ptr %4, align 8, !tbaa !3
  call void @kdf_scrypt_init(ptr noundef %18)
  %19 = load ptr, ptr %4, align 8, !tbaa !3
  store ptr %19, ptr %2, align 8
  store i32 1, ptr %5, align 4
  br label %20

20:                                               ; preds = %14, %13, %8
  call void @llvm.lifetime.end.p0(i64 8, ptr %4) #5
  %21 = load ptr, ptr %2, align 8
  ret ptr %21
}

; Function Attrs: nounwind uwtable
define internal ptr @kdf_scrypt_dup(ptr noundef %0) #0 {
  %2 = alloca ptr, align 8
  %3 = alloca ptr, align 8
  %4 = alloca ptr, align 8
  %5 = alloca ptr, align 8
  %6 = alloca i32, align 4
  store ptr %0, ptr %3, align 8, !tbaa !3
  call void @llvm.lifetime.start.p0(i64 8, ptr %4) #5
  %7 = load ptr, ptr %3, align 8, !tbaa !3
  store ptr %7, ptr %4, align 8, !tbaa !3
  call void @llvm.lifetime.start.p0(i64 8, ptr %5) #5
  %8 = load ptr, ptr %4, align 8, !tbaa !3
  %9 = getelementptr inbounds nuw %struct.KDF_SCRYPT, ptr %8, i32 0, i32 0
  %10 = load ptr, ptr %9, align 8, !tbaa !7
  %11 = call ptr @kdf_scrypt_new_inner(ptr noundef %10)
  store ptr %11, ptr %5, align 8, !tbaa !3
  %12 = load ptr, ptr %5, align 8, !tbaa !3
  %13 = icmp ne ptr %12, null
  br i1 %13, label %14, label %97

14:                                               ; preds = %1
  %15 = load ptr, ptr %4, align 8, !tbaa !3
  %16 = getelementptr inbounds nuw %struct.KDF_SCRYPT, ptr %15, i32 0, i32 10
  %17 = load ptr, ptr %16, align 8, !tbaa !13
  %18 = icmp ne ptr %17, null
  br i1 %18, label %19, label %26

19:                                               ; preds = %14
  %20 = load ptr, ptr %4, align 8, !tbaa !3
  %21 = getelementptr inbounds nuw %struct.KDF_SCRYPT, ptr %20, i32 0, i32 10
  %22 = load ptr, ptr %21, align 8, !tbaa !13
  %23 = call i32 @EVP_MD_up_ref(ptr noundef %22)
  %24 = icmp ne i32 %23, 0
  br i1 %24, label %26, label %25

25:                                               ; preds = %19
  br label %99

26:                                               ; preds = %19, %14
  %27 = load ptr, ptr %4, align 8, !tbaa !3
  %28 = getelementptr inbounds nuw %struct.KDF_SCRYPT, ptr %27, i32 0, i32 1
  %29 = load ptr, ptr %28, align 8, !tbaa !14
  %30 = icmp ne ptr %29, null
  br i1 %30, label %31, label %44

31:                                               ; preds = %26
  %32 = load ptr, ptr %4, align 8, !tbaa !3
  %33 = getelementptr inbounds nuw %struct.KDF_SCRYPT, ptr %32, i32 0, i32 1
  %34 = load ptr, ptr %33, align 8, !tbaa !14
  %35 = call noalias ptr @CRYPTO_strdup(ptr noundef %34, ptr noundef @.str, i32 noundef 111)
  %36 = load ptr, ptr %5, align 8, !tbaa !3
  %37 = getelementptr inbounds nuw %struct.KDF_SCRYPT, ptr %36, i32 0, i32 1
  store ptr %35, ptr %37, align 8, !tbaa !14
  %38 = load ptr, ptr %5, align 8, !tbaa !3
  %39 = getelementptr inbounds nuw %struct.KDF_SCRYPT, ptr %38, i32 0, i32 1
  %40 = load ptr, ptr %39, align 8, !tbaa !14
  %41 = icmp eq ptr %40, null
  br i1 %41, label %42, label %43

42:                                               ; preds = %31
  br label %99

43:                                               ; preds = %31
  br label %44

44:                                               ; preds = %43, %26
  %45 = load ptr, ptr %4, align 8, !tbaa !3
  %46 = getelementptr inbounds nuw %struct.KDF_SCRYPT, ptr %45, i32 0, i32 4
  %47 = load ptr, ptr %46, align 8, !tbaa !15
  %48 = load ptr, ptr %4, align 8, !tbaa !3
  %49 = getelementptr inbounds nuw %struct.KDF_SCRYPT, ptr %48, i32 0, i32 5
  %50 = load i64, ptr %49, align 8, !tbaa !16
  %51 = load ptr, ptr %5, align 8, !tbaa !3
  %52 = getelementptr inbounds nuw %struct.KDF_SCRYPT, ptr %51, i32 0, i32 4
  %53 = load ptr, ptr %5, align 8, !tbaa !3
  %54 = getelementptr inbounds nuw %struct.KDF_SCRYPT, ptr %53, i32 0, i32 5
  %55 = call i32 @ossl_prov_memdup(ptr noundef %47, i64 noundef %50, ptr noundef %52, ptr noundef %54)
  %56 = icmp ne i32 %55, 0
  br i1 %56, label %57, label %70

57:                                               ; preds = %44
  %58 = load ptr, ptr %4, align 8, !tbaa !3
  %59 = getelementptr inbounds nuw %struct.KDF_SCRYPT, ptr %58, i32 0, i32 2
  %60 = load ptr, ptr %59, align 8, !tbaa !17
  %61 = load ptr, ptr %4, align 8, !tbaa !3
  %62 = getelementptr inbounds nuw %struct.KDF_SCRYPT, ptr %61, i32 0, i32 3
  %63 = load i64, ptr %62, align 8, !tbaa !18
  %64 = load ptr, ptr %5, align 8, !tbaa !3
  %65 = getelementptr inbounds nuw %struct.KDF_SCRYPT, ptr %64, i32 0, i32 2
  %66 = load ptr, ptr %5, align 8, !tbaa !3
  %67 = getelementptr inbounds nuw %struct.KDF_SCRYPT, ptr %66, i32 0, i32 3
  %68 = call i32 @ossl_prov_memdup(ptr noundef %60, i64 noundef %63, ptr noundef %65, ptr noundef %67)
  %69 = icmp ne i32 %68, 0
  br i1 %69, label %71, label %70

70:                                               ; preds = %57, %44
  br label %99

71:                                               ; preds = %57
  %72 = load ptr, ptr %4, align 8, !tbaa !3
  %73 = getelementptr inbounds nuw %struct.KDF_SCRYPT, ptr %72, i32 0, i32 6
  %74 = load i64, ptr %73, align 8, !tbaa !19
  %75 = load ptr, ptr %5, align 8, !tbaa !3
  %76 = getelementptr inbounds nuw %struct.KDF_SCRYPT, ptr %75, i32 0, i32 6
  store i64 %74, ptr %76, align 8, !tbaa !19
  %77 = load ptr, ptr %4, align 8, !tbaa !3
  %78 = getelementptr inbounds nuw %struct.KDF_SCRYPT, ptr %77, i32 0, i32 7
  %79 = load i64, ptr %78, align 8, !tbaa !20
  %80 = load ptr, ptr %5, align 8, !tbaa !3
  %81 = getelementptr inbounds nuw %struct.KDF_SCRYPT, ptr %80, i32 0, i32 7
  store i64 %79, ptr %81, align 8, !tbaa !20
  %82 = load ptr, ptr %4, align 8, !tbaa !3
  %83 = getelementptr inbounds nuw %struct.KDF_SCRYPT, ptr %82, i32 0, i32 8
  %84 = load i64, ptr %83, align 8, !tbaa !21
  %85 = load ptr, ptr %5, align 8, !tbaa !3
  %86 = getelementptr inbounds nuw %struct.KDF_SCRYPT, ptr %85, i32 0, i32 8
  store i64 %84, ptr %86, align 8, !tbaa !21
  %87 = load ptr, ptr %4, align 8, !tbaa !3
  %88 = getelementptr inbounds nuw %struct.KDF_SCRYPT, ptr %87, i32 0, i32 9
  %89 = load i64, ptr %88, align 8, !tbaa !22
  %90 = load ptr, ptr %5, align 8, !tbaa !3
  %91 = getelementptr inbounds nuw %struct.KDF_SCRYPT, ptr %90, i32 0, i32 9
  store i64 %89, ptr %91, align 8, !tbaa !22
  %92 = load ptr, ptr %4, align 8, !tbaa !3
  %93 = getelementptr inbounds nuw %struct.KDF_SCRYPT, ptr %92, i32 0, i32 10
  %94 = load ptr, ptr %93, align 8, !tbaa !13
  %95 = load ptr, ptr %5, align 8, !tbaa !3
  %96 = getelementptr inbounds nuw %struct.KDF_SCRYPT, ptr %95, i32 0, i32 10
  store ptr %94, ptr %96, align 8, !tbaa !13
  br label %97

97:                                               ; preds = %71, %1
  %98 = load ptr, ptr %5, align 8, !tbaa !3
  store ptr %98, ptr %2, align 8
  store i32 1, ptr %6, align 4
  br label %101

99:                                               ; preds = %70, %42, %25
  %100 = load ptr, ptr %5, align 8, !tbaa !3
  call void @kdf_scrypt_free(ptr noundef %100)
  store ptr null, ptr %2, align 8
  store i32 1, ptr %6, align 4
  br label %101

101:                                              ; preds = %99, %97
  call void @llvm.lifetime.end.p0(i64 8, ptr %5) #5
  call void @llvm.lifetime.end.p0(i64 8, ptr %4) #5
  %102 = load ptr, ptr %2, align 8
  ret ptr %102
}