; Function Attrs: nounwind uwtable
define internal ptr @kdf_scrypt_dup(ptr noundef readonly captures(none) %0) #0 {
  %2 = load ptr, ptr %0, align 8, !tbaa !3
  %3 = tail call i32 @ossl_prov_is_running() #7
  %.not.i = icmp eq i32 %3, 0
  br i1 %.not.i, label %kdf_scrypt_new_inner.exit.thread, label %4

4:                                                ; preds = %1
  %5 = tail call noalias ptr @CRYPTO_zalloc(i64 noundef 88, ptr noundef nonnull @.str, i32 noundef 65) #7
  %6 = icmp eq ptr %5, null
  br i1 %6, label %kdf_scrypt_new_inner.exit.thread, label %7

7:                                                ; preds = %4
  store ptr %2, ptr %5, align 8, !tbaa !3
  %8 = getelementptr inbounds nuw i8, ptr %5, i64 48
  store i64 1048576, ptr %8, align 8, !tbaa !12
  %9 = getelementptr inbounds nuw i8, ptr %5, i64 56
  store i64 8, ptr %9, align 8, !tbaa !13
  %10 = getelementptr inbounds nuw i8, ptr %5, i64 64
  store i64 1, ptr %10, align 8, !tbaa !14
  %11 = getelementptr inbounds nuw i8, ptr %5, i64 72
  store i64 1074790400, ptr %11, align 8, !tbaa !15
  %12 = getelementptr inbounds nuw i8, ptr %0, i64 80
  %13 = load ptr, ptr %12, align 8, !tbaa !16
  %.not33 = icmp eq ptr %13, null
  br i1 %.not33, label %16, label %14

14:                                               ; preds = %7
  %15 = tail call i32 @EVP_MD_up_ref(ptr noundef nonnull %13) #7
  %.not34 = icmp eq i32 %15, 0
  br i1 %.not34, label %kdf_scrypt_free.exit, label %16

16:                                               ; preds = %14, %7
  %17 = getelementptr inbounds nuw i8, ptr %0, i64 8
  %18 = load ptr, ptr %17, align 8, !tbaa !17
  %.not35 = icmp eq ptr %18, null
  br i1 %.not35, label %23, label %19

19:                                               ; preds = %16
  %20 = tail call noalias ptr @CRYPTO_strdup(ptr noundef nonnull %18, ptr noundef nonnull @.str, i32 noundef 111) #7
  %21 = getelementptr inbounds nuw i8, ptr %5, i64 8
  store ptr %20, ptr %21, align 8, !tbaa !17
  %22 = icmp eq ptr %20, null
  br i1 %22, label %kdf_scrypt_free.exit, label %23

23:                                               ; preds = %19, %16
  %24 = getelementptr inbounds nuw i8, ptr %0, i64 32
  %25 = load ptr, ptr %24, align 8, !tbaa !18
  %26 = getelementptr inbounds nuw i8, ptr %0, i64 40
  %27 = load i64, ptr %26, align 8, !tbaa !19
  %28 = getelementptr inbounds nuw i8, ptr %5, i64 32
  %29 = getelementptr inbounds nuw i8, ptr %5, i64 40
  %30 = tail call i32 @ossl_prov_memdup(ptr noundef %25, i64 noundef %27, ptr noundef nonnull %28, ptr noundef nonnull %29) #7
  %.not36 = icmp eq i32 %30, 0
  br i1 %.not36, label %kdf_scrypt_free.exit, label %31

31:                                               ; preds = %23
  %32 = getelementptr inbounds nuw i8, ptr %0, i64 16
  %33 = load ptr, ptr %32, align 8, !tbaa !20
  %34 = getelementptr inbounds nuw i8, ptr %0, i64 24
  %35 = load i64, ptr %34, align 8, !tbaa !21
  %36 = getelementptr inbounds nuw i8, ptr %5, i64 16
  %37 = getelementptr inbounds nuw i8, ptr %5, i64 24
  %38 = tail call i32 @ossl_prov_memdup(ptr noundef %33, i64 noundef %35, ptr noundef nonnull %36, ptr noundef nonnull %37) #7
  %.not37 = icmp eq i32 %38, 0
  br i1 %.not37, label %kdf_scrypt_free.exit, label %39

39:                                               ; preds = %31
  %40 = getelementptr inbounds nuw i8, ptr %0, i64 48
  %41 = load i64, ptr %40, align 8, !tbaa !12
  store i64 %41, ptr %8, align 8, !tbaa !12
  %42 = getelementptr inbounds nuw i8, ptr %0, i64 56
  %43 = load i64, ptr %42, align 8, !tbaa !13
  store i64 %43, ptr %9, align 8, !tbaa !13
  %44 = getelementptr inbounds nuw i8, ptr %0, i64 64
  %45 = load i64, ptr %44, align 8, !tbaa !14
  store i64 %45, ptr %10, align 8, !tbaa !14
  %46 = getelementptr inbounds nuw i8, ptr %0, i64 72
  %47 = load i64, ptr %46, align 8, !tbaa !15
  store i64 %47, ptr %11, align 8, !tbaa !15
  %48 = load ptr, ptr %12, align 8, !tbaa !16
  %49 = getelementptr inbounds nuw i8, ptr %5, i64 80
  store ptr %48, ptr %49, align 8, !tbaa !16
  br label %kdf_scrypt_new_inner.exit.thread

kdf_scrypt_free.exit:                             ; preds = %23, %31, %19, %14
  %50 = getelementptr inbounds nuw i8, ptr %5, i64 8
  %51 = load ptr, ptr %50, align 8, !tbaa !17
  tail call void @CRYPTO_free(ptr noundef %51, ptr noundef nonnull @.str, i32 noundef 83) #7
  %52 = getelementptr inbounds nuw i8, ptr %5, i64 80
  %53 = load ptr, ptr %52, align 8, !tbaa !16
  tail call void @EVP_MD_free(ptr noundef %53) #7
  %54 = getelementptr inbounds nuw i8, ptr %5, i64 32
  %55 = load ptr, ptr %54, align 8, !tbaa !18
  tail call void @CRYPTO_free(ptr noundef %55, ptr noundef nonnull @.str, i32 noundef 94) #7
  store ptr null, ptr %54, align 8, !tbaa !18
  %56 = getelementptr inbounds nuw i8, ptr %5, i64 16
  %57 = load ptr, ptr %56, align 8, !tbaa !20
  %58 = getelementptr inbounds nuw i8, ptr %5, i64 24
  %59 = load i64, ptr %58, align 8, !tbaa !21
  tail call void @CRYPTO_clear_free(ptr noundef %57, i64 noundef %59, ptr noundef nonnull @.str, i32 noundef 96) #7
  store ptr null, ptr %56, align 8, !tbaa !20
  store i64 1048576, ptr %8, align 8, !tbaa !12
  store i64 8, ptr %9, align 8, !tbaa !13
  store i64 1, ptr %10, align 8, !tbaa !14
  store i64 1074790400, ptr %11, align 8, !tbaa !15
  tail call void @CRYPTO_free(ptr noundef nonnull %5, ptr noundef nonnull @.str, i32 noundef 86) #7
  br label %kdf_scrypt_new_inner.exit.thread

kdf_scrypt_new_inner.exit.thread:                 ; preds = %4, %1, %39, %kdf_scrypt_free.exit
  %.0 = phi ptr [ null, %kdf_scrypt_free.exit ], [ %5, %39 ], [ null, %1 ], [ null, %4 ]
  ret ptr %.0
}